# This is a bundle of X.509 certificates of public Certificate
# Authorities.  It was generated from the Mozilla root CA list.
# These certificates and trust/distrust attributes use the file format accepted
# by the p11-kit-trust module.
#
# Source: nss/lib/ckfw/builtins/certdata.txt
# Source: nss/lib/ckfw/builtins/nssckbi.h
#
# Generated from:
# NSS_BUILTINS_LIBRARY_VERSION "2.50"
#
[p11-kit-object-v1]
label: "AC RAIZ FNMT-RCM"
class: x-certificate-extension
object-id: 2.5.29.37
value: "0%16%06%03U%1d%25%01%01%ff%04%0c0%0a%06%08%2b%06%01%05%05%07%03%01"
modifiable: false
-----BEGIN PUBLIC KEY-----
MIICIjANBgkqhkiG9w0BAQEFAAOCAg8AMIICCgKCAgEAunGAekyGbn/IE23Axn0c
AJePLAwjuxCaQKkat4eI+JtWavvme46Lko6nJV1ZEds2LrdRFx+pCB8EFyRYqjdK
GN/lOdRX/dfBLJEBkeIi1APAWPx3R+yPPnRDuqw0jU04dmeOsMhvMDNYcVy09Wtu
1AFQuBN+bEqjSdEgGe68wCkYZafe/u/dCpAh5xpnkkIQmF9PMLw+HEW0ENdoQBTA
QPrndxd65guPZVs82ZpS27W9nkbPPeuRBQLAlrJ2TE0QljuS+px/D5nfviM1RR4C
XP61qJuZJdpe8yLDOfXkKi7Txh/EbKrFHGoBBUov0sXBqDQmXWal0gIh+Ri3BvVO
mW+oq0xR6M9QGMV3yDkJLEmSMpmouxcXebBaxeajxFllRzWDXqnoNQuZu+TNIMab
SgY5tWj8IrruVYwrTurzseP8tpma1UL6cU0Iz4ceanF9+dO06aVxgXvCTkeWpfZ2
haMoj+mAboFTpW1fuEj5wvk2pi5J/7iWwowHs5uIWPzrGxzeLXDil5IwoYnjvFWo
J9ZL7ZCti/pjJVktqDXdypczvOXNx53R7O9eDkqQBiZjrbnZNS0HunZlLKxXj330
B5TXgQKWXaMHSdV60Ff5G+dTRnWqsHlCy2hxCOlgvTlpzvSvw1ZAx61Sognkb4ZH
ih/rKCddgyCvBMlsVpqLRvUCAwEAAQ==
-----END PUBLIC KEY-----

[p11-kit-object-v1]
label: "AC RAIZ FNMT-RCM"
trusted: true
nss-mozilla-ca-policy: true
modifiable: false
-----BEGIN CERTIFICATE-----
MIIFgzCCA2ugAwIBAgIPXZONMGc2yAYdGsdUhGkHMA0GCSqGSIb3DQEBCwUAMDsx
CzAJBgNVBAYTAkVTMREwDwYDVQQKDAhGTk1ULVJDTTEZMBcGA1UECwwQQUMgUkFJ
WiBGTk1ULVJDTTAeFw0wODEwMjkxNTU5NTZaFw0zMDAxMDEwMDAwMDBaMDsxCzAJ
BgNVBAYTAkVTMREwDwYDVQQKDAhGTk1ULVJDTTEZMBcGA1UECwwQQUMgUkFJWiBG
Tk1ULVJDTTCCAiIwDQYJKoZIhvcNAQEBBQADggIPADCCAgoCggIBALpxgHpMhm5/
yBNtwMZ9HACXjywMI7sQmkCpGreHiPibVmr75nuOi5KOpyVdWRHbNi63URcfqQgf
BBckWKo3Shjf5TnUV/3XwSyRAZHiItQDwFj8d0fsjz50Q7qsNI1NOHZnjrDIbzAz
WHFctPVrbtQBULgTfmxKo0nRIBnuvMApGGWn3v7v3QqQIecaZ5JCEJhfTzC8PhxF
tBDXaEAUwED653cXeuYLj2VbPNmaUtu1vZ5Gzz3rkQUCwJaydkxNEJY7kvqcfw+Z
374jNUUeAlz+taibmSXaXvMiwzn15Cou08YfxGyqxRxqAQVKL9LFwag0Jl1mpdIC
IfkYtwb1TplvqKtMUejPUBjFd8g5CSxJkjKZqLsXF3mwWsXmo8RZZUc1g16p6DUL
mbvkzSDGm0oGObVo/CK67lWMK07q87Hj/LaZmtVC+nFNCM+HHmpxffnTtOmlcYF7
wk5HlqX2doWjKI/pgG6BU6VtX7hI+cL5NqYuSf+4lsKMB7ObiFj86xsc3i1w4peS
MKGJ47xVqCfWS+2QrYv6YyVZLag13cqXM7zlzced0ezvXg5KkAYmY6252TUtB7p2
ZSysV4999AeU14ECll2jB0nVetBX+RvnU0Z1qrB5QstocQjpYL05ac70r8NWQMet
UqIJ5G+GR4of6ygnXYMgrwTJbFaai0b1AgMBAAGjgYMwgYAwDwYDVR0TAQH/BAUw
AwEB/zAOBgNVHQ8BAf8EBAMCAQYwHQYDVR0OBBYEFPd9xf3E6Jobd2Sn9R2gzL+H
YJptMD4GA1UdIAQ3MDUwMwYEVR0gADArMCkGCCsGAQUFBwIBFh1odHRwOi8vd3d3
LmNlcnQuZm5tdC5lcy9kcGNzLzANBgkqhkiG9w0BAQsFAAOCAgEAB5BK3/MjTvDD
nFFlm5wioooMhfNzKWtN/gHiqQxjAb8EZ6WdmF/9ARP67Jpi6Yb+tmLSbkyU+8B1
RXxlDPiyN8+sD8+Nb/kZ94/sHvJwnvDKuO+3/3Y3dlv2bojzr2IyIpMNOmqOFGYM
LVN0V2Ue1bLdI4E7pWYjJ2cJj+F3qkPNZVEI7VFY/uY5+ctHhKQV8Xa7pO6kO8Rf
77IzlhEYt8llvhjho6Tc+hj507wTmzl6NLrTQfv6MooqtyuGC2mDOL7Nii4LcK2N
JpLuHvUBKwrZ1pebbuCoGRw6IYsMHkCtA+fdZn71uSANA+iW+YJF1DngoABd15jm
fZ5nc8OaKveri6E6FO80vFIOiZiaBECEHX5FaZNXzuvO+FB8TxxuBEOb+dY7Ixjp
6o7RTUaN8Tvkasq6+yO3m/qZASlaWFot4/nUbQ4mrcFuNLwy+AwF+mWj2zs3gyLp
1txyM/1d8iC9djwj2ij3+RvrWWTV3F9yfiD8zYm1kGdNYno/Tq0dwzn+evQoFt9B
9kiABdcPUXmsEKvU7ANm5mqwujGSQkBqvjrTcuFqN1W8rB2Vt2lh8kORdOag0wok
RqEIr9baRRmW1FMdW4R58MD3R++Lj8UGrp1MYp3/RgT408m2ECVAdf4WqslKYIYv
uu8wd+RU4riEmViAqhOLUTpPSPaLtrM=
-----END CERTIFICATE-----
#Certificate:
#    Data:
#        Version: 3 (0x2)
#        Serial Number:
#            5d:93:8d:30:67:36:c8:06:1d:1a:c7:54:84:69:07
#        Signature Algorithm: sha256WithRSAEncryption
#        Issuer: C = ES, O = FNMT-RCM, OU = AC RAIZ FNMT-RCM
#        Validity
#            Not Before: Oct 29 15:59:56 2008 GMT
#            Not After : Jan  1 00:00:00 2030 GMT
#        Subject: C = ES, O = FNMT-RCM, OU = AC RAIZ FNMT-RCM
#        Subject Public Key Info:
#            Public Key Algorithm: rsaEncryption
#                RSA Public-Key: (4096 bit)
#                Modulus:
#                    00:ba:71:80:7a:4c:86:6e:7f:c8:13:6d:c0:c6:7d:
#                    1c:00:97:8f:2c:0c:23:bb:10:9a:40:a9:1a:b7:87:
#                    88:f8:9b:56:6a:fb:e6:7b:8e:8b:92:8e:a7:25:5d:
#                    59:11:db:36:2e:b7:51:17:1f:a9:08:1f:04:17:24:
#                    58:aa:37:4a:18:df:e5:39:d4:57:fd:d7:c1:2c:91:
#                    01:91:e2:22:d4:03:c0:58:fc:77:47:ec:8f:3e:74:
#                    43:ba:ac:34:8d:4d:38:76:67:8e:b0:c8:6f:30:33:
#                    58:71:5c:b4:f5:6b:6e:d4:01:50:b8:13:7e:6c:4a:
#                    a3:49:d1:20:19:ee:bc:c0:29:18:65:a7:de:fe:ef:
#                    dd:0a:90:21:e7:1a:67:92:42:10:98:5f:4f:30:bc:
#                    3e:1c:45:b4:10:d7:68:40:14:c0:40:fa:e7:77:17:
#                    7a:e6:0b:8f:65:5b:3c:d9:9a:52:db:b5:bd:9e:46:
#                    cf:3d:eb:91:05:02:c0:96:b2:76:4c:4d:10:96:3b:
#                    92:fa:9c:7f:0f:99:df:be:23:35:45:1e:02:5c:fe:
#                    b5:a8:9b:99:25:da:5e:f3:22:c3:39:f5:e4:2a:2e:
#                    d3:c6:1f:c4:6c:aa:c5:1c:6a:01:05:4a:2f:d2:c5:
#                    c1:a8:34:26:5d:66:a5:d2:02:21:f9:18:b7:06:f5:
#                    4e:99:6f:a8:ab:4c:51:e8:cf:50:18:c5:77:c8:39:
#                    09:2c:49:92:32:99:a8:bb:17:17:79:b0:5a:c5:e6:
#                    a3:c4:59:65:47:35:83:5e:a9:e8:35:0b:99:bb:e4:
#                    cd:20:c6:9b:4a:06:39:b5:68:fc:22:ba:ee:55:8c:
#                    2b:4e:ea:f3:b1:e3:fc:b6:99:9a:d5:42:fa:71:4d:
#                    08:cf:87:1e:6a:71:7d:f9:d3:b4:e9:a5:71:81:7b:
#                    c2:4e:47:96:a5:f6:76:85:a3:28:8f:e9:80:6e:81:
#                    53:a5:6d:5f:b8:48:f9:c2:f9:36:a6:2e:49:ff:b8:
#                    96:c2:8c:07:b3:9b:88:58:fc:eb:1b:1c:de:2d:70:
#                    e2:97:92:30:a1:89:e3:bc:55:a8:27:d6:4b:ed:90:
#                    ad:8b:fa:63:25:59:2d:a8:35:dd:ca:97:33:bc:e5:
#                    cd:c7:9d:d1:ec:ef:5e:0e:4a:90:06:26:63:ad:b9:
#                    d9:35:2d:07:ba:76:65:2c:ac:57:8f:7d:f4:07:94:
#                    d7:81:02:96:5d:a3:07:49:d5:7a:d0:57:f9:1b:e7:
#                    53:46:75:aa:b0:79:42:cb:68:71:08:e9:60:bd:39:
#                    69:ce:f4:af:c3:56:40:c7:ad:52:a2:09:e4:6f:86:
#                    47:8a:1f:eb:28:27:5d:83:20:af:04:c9:6c:56:9a:
#                    8b:46:f5
#                Exponent: 65537 (0x10001)
#        X509v3 extensions:
#            X509v3 Basic Constraints: critical
#                CA:TRUE
#            X509v3 Key Usage: critical
#                Certificate Sign, CRL Sign
#            X509v3 Subject Key Identifier: 
#                F7:7D:C5:FD:C4:E8:9A:1B:77:64:A7:F5:1D:A0:CC:BF:87:60:9A:6D
#            X509v3 Certificate Policies: 
#                Policy: X509v3 Any Policy
#                  CPS: http://www.cert.fnmt.es/dpcs/
#
#    Signature Algorithm: sha256WithRSAEncryption
#         07:90:4a:df:f3:23:4e:f0:c3:9c:51:65:9b:9c:22:a2:8a:0c:
#         85:f3:73:29:6b:4d:fe:01:e2:a9:0c:63:01:bf:04:67:a5:9d:
#         98:5f:fd:01:13:fa:ec:9a:62:e9:86:fe:b6:62:d2:6e:4c:94:
#         fb:c0:75:45:7c:65:0c:f8:b2:37:cf:ac:0f:cf:8d:6f:f9:19:
#         f7:8f:ec:1e:f2:70:9e:f0:ca:b8:ef:b7:ff:76:37:76:5b:f6:
#         6e:88:f3:af:62:32:22:93:0d:3a:6a:8e:14:66:0c:2d:53:74:
#         57:65:1e:d5:b2:dd:23:81:3b:a5:66:23:27:67:09:8f:e1:77:
#         aa:43:cd:65:51:08:ed:51:58:fe:e6:39:f9:cb:47:84:a4:15:
#         f1:76:bb:a4:ee:a4:3b:c4:5f:ef:b2:33:96:11:18:b7:c9:65:
#         be:18:e1:a3:a4:dc:fa:18:f9:d3:bc:13:9b:39:7a:34:ba:d3:
#         41:fb:fa:32:8a:2a:b7:2b:86:0b:69:83:38:be:cd:8a:2e:0b:
#         70:ad:8d:26:92:ee:1e:f5:01:2b:0a:d9:d6:97:9b:6e:e0:a8:
#         19:1c:3a:21:8b:0c:1e:40:ad:03:e7:dd:66:7e:f5:b9:20:0d:
#         03:e8:96:f9:82:45:d4:39:e0:a0:00:5d:d7:98:e6:7d:9e:67:
#         73:c3:9a:2a:f7:ab:8b:a1:3a:14:ef:34:bc:52:0e:89:98:9a:
#         04:40:84:1d:7e:45:69:93:57:ce:eb:ce:f8:50:7c:4f:1c:6e:
#         04:43:9b:f9:d6:3b:23:18:e9:ea:8e:d1:4d:46:8d:f1:3b:e4:
#         6a:ca:ba:fb:23:b7:9b:fa:99:01:29:5a:58:5a:2d:e3:f9:d4:
#         6d:0e:26:ad:c1:6e:34:bc:32:f8:0c:05:fa:65:a3:db:3b:37:
#         83:22:e9:d6:dc:72:33:fd:5d:f2:20:bd:76:3c:23:da:28:f7:
#         f9:1b:eb:59:64:d5:dc:5f:72:7e:20:fc:cd:89:b5:90:67:4d:
#         62:7a:3f:4e:ad:1d:c3:39:fe:7a:f4:28:16:df:41:f6:48:80:
#         05:d7:0f:51:79:ac:10:ab:d4:ec:03:66:e6:6a:b0:ba:31:92:
#         42:40:6a:be:3a:d3:72:e1:6a:37:55:bc:ac:1d:95:b7:69:61:
#         f2:43:91:74:e6:a0:d3:0a:24:46:a1:08:af:d6:da:45:19:96:
#         d4:53:1d:5b:84:79:f0:c0:f7:47:ef:8b:8f:c5:06:ae:9d:4c:
#         62:9d:ff:46:04:f8:d3:c9:b6:10:25:40:75:fe:16:aa:c9:4a:
#         60:86:2f:ba:ef:30:77:e4:54:e2:b8:84:99:58:80:aa:13:8b:
#         51:3a:4f:48:f6:8b:b6:b3

[p11-kit-object-v1]
label: "AC RAIZ FNMT-RCM SERVIDORES SEGUROS"
class: x-certificate-extension
object-id: 2.5.29.37
value: "0%16%06%03U%1d%25%01%01%ff%04%0c0%0a%06%08%2b%06%01%05%05%07%03%01"
modifiable: false
-----BEGIN PUBLIC KEY-----
MHYwEAYHKoZIzj0CAQYFK4EEACIDYgAE9rpXU8jKq982SlIh5JfSg2ee8GVR0F6H
x0exWfJXR5sAApNEF2nbQsexsjoYDrRdjLNmXaE0+TYsSdvzRvyzRGlEE2b918X9
rzZNzgNNB3HPr2oF0qJDWgpSbwEDTo6L
-----END PUBLIC KEY-----

[p11-kit-object-v1]
label: "AC RAIZ FNMT-RCM SERVIDORES SEGUROS"
trusted: true
nss-mozilla-ca-policy: true
modifiable: false
-----BEGIN CERTIFICATE-----
MIICbjCCAfOgAwIBAgIQYvYybOXE42hcG2LdnC6dlTAKBggqhkjOPQQDAzB4MQsw
CQYDVQQGEwJFUzERMA8GA1UECgwIRk5NVC1SQ00xDjAMBgNVBAsMBUNlcmVzMRgw
FgYDVQRhDA9WQVRFUy1RMjgyNjAwNEoxLDAqBgNVBAMMI0FDIFJBSVogRk5NVC1S
Q00gU0VSVklET1JFUyBTRUdVUk9TMB4XDTE4MTIyMDA5MzczM1oXDTQzMTIyMDA5
MzczM1oweDELMAkGA1UEBhMCRVMxETAPBgNVBAoMCEZOTVQtUkNNMQ4wDAYDVQQL
DAVDZXJlczEYMBYGA1UEYQwPVkFURVMtUTI4MjYwMDRKMSwwKgYDVQQDDCNBQyBS
QUlaIEZOTVQtUkNNIFNFUlZJRE9SRVMgU0VHVVJPUzB2MBAGByqGSM49AgEGBSuB
BAAiA2IABPa6V1PIyqvfNkpSIeSX0oNnnvBlUdBeh8dHsVnyV0ebAAKTRBdp20LH
sbI6GA60XYyzZl2hNPk2LEnb80b8s0RpRBNm/dfF/a82Tc4DTQdxz69qBdKiQ1oK
Um8BA06Oi6NCMEAwDwYDVR0TAQH/BAUwAwEB/zAOBgNVHQ8BAf8EBAMCAQYwHQYD
VR0OBBYEFAG5L++/EYZg8k/QQW6rcx/n0m5JMAoGCCqGSM49BAMDA2kAMGYCMQCu
SuMrQMN0EfKVrRYj3k4MGuZdpSRea0R7/DjiT8ucRRcRTBQnJlU5dUoDzBOQn5IC
MQD6SmxgiHPz7riYYqnOK8LZiqZwMR2vsJRM60/G49HzYqc8/5MuB1xJAWdpEgJy
v+c=
-----END CERTIFICATE-----
#Certificate:
#    Data:
#        Version: 3 (0x2)
#        Serial Number:
#            62:f6:32:6c:e5:c4:e3:68:5c:1b:62:dd:9c:2e:9d:95
#        Signature Algorithm: ecdsa-with-SHA384
#        Issuer: C = ES, O = FNMT-RCM, OU = Ceres, organizationIdentifier = VATES-Q2826004J, CN = AC RAIZ FNMT-RCM SERVIDORES SEGUROS
#        Validity
#            Not Before: Dec 20 09:37:33 2018 GMT
#            Not After : Dec 20 09:37:33 2043 GMT
#        Subject: C = ES, O = FNMT-RCM, OU = Ceres, organizationIdentifier = VATES-Q2826004J, CN = AC RAIZ FNMT-RCM SERVIDORES SEGUROS
#        Subject Public Key Info:
#            Public Key Algorithm: id-ecPublicKey
#                Public-Key: (384 bit)
#                pub:
#                    04:f6:ba:57:53:c8:ca:ab:df:36:4a:52:21:e4:97:
#                    d2:83:67:9e:f0:65:51:d0:5e:87:c7:47:b1:59:f2:
#                    57:47:9b:00:02:93:44:17:69:db:42:c7:b1:b2:3a:
#                    18:0e:b4:5d:8c:b3:66:5d:a1:34:f9:36:2c:49:db:
#                    f3:46:fc:b3:44:69:44:13:66:fd:d7:c5:fd:af:36:
#                    4d:ce:03:4d:07:71:cf:af:6a:05:d2:a2:43:5a:0a:
#                    52:6f:01:03:4e:8e:8b
#                ASN1 OID: secp384r1
#                NIST CURVE: P-384
#        X509v3 extensions:
#            X509v3 Basic Constraints: critical
#                CA:TRUE
#            X509v3 Key Usage: critical
#                Certificate Sign, CRL Sign
#            X509v3 Subject Key Identifier: 
#                01:B9:2F:EF:BF:11:86:60:F2:4F:D0:41:6E:AB:73:1F:E7:D2:6E:49
#    Signature Algorithm: ecdsa-with-SHA384
#         30:66:02:31:00:ae:4a:e3:2b:40:c3:74:11:f2:95:ad:16:23:
#         de:4e:0c:1a:e6:5d:a5:24:5e:6b:44:7b:fc:38:e2:4f:cb:9c:
#         45:17:11:4c:14:27:26:55:39:75:4a:03:cc:13:90:9f:92:02:
#         31:00:fa:4a:6c:60:88:73:f3:ee:b8:98:62:a9:ce:2b:c2:d9:
#         8a:a6:70:31:1d:af:b0:94:4c:eb:4f:c6:e3:d1:f3:62:a7:3c:
#         ff:93:2e:07:5c:49:01:67:69:12:02:72:bf:e7

[p11-kit-object-v1]
label: "ACCVRAIZ1"
class: x-certificate-extension
object-id: 2.5.29.37
value: "0 %06%03U%1d%25%01%01%ff%04%160%14%06%08%2b%06%01%05%05%07%03%04%06%08%2b%06%01%05%05%07%03%01"
modifiable: false
-----BEGIN PUBLIC KEY-----
MIICIjANBgkqhkiG9w0BAQEFAAOCAg8AMIICCgKCAgEAm6mrv2FKl68vl2aadF/Q
2Zb9z+LkZu8fH0czwkSj35reH7VU3RV8aTURb7vIDI5qGB7Yj9kWvBBINlzwY7OQ
WlwkN9ej1ssJcbnxAXKEsH3bTYDN/NNvyfjatg6C0kWFqBtoqD3o9ERsvaHCywO+
jD4TAITfSkjA4yIK6Ok3pxhMsQkNI1Z/BE3ZF4QYpcjaQJRz684OVzwDgTqdCqFX
Q2msV215kHjltbQ72LxMjSihp6OnugJOJdEqru2uAyK4ayAPMChUlX/g7s4KZp3R
QC1uIq+dGsEFGdJvwPKf+HuzAkL7UKkdLZMPI6vGwQ+S/9CiFfVTCXEc/0UThOYm
XvjgiBwK/Ba2qHMGuPBjhAKgxlrs53TfcK6jgyXq1seXh5OnxoqKM5dgNxA+lz5u
KRXWoQ/RiCwSn2+qpMZC60Gi45VD0wGFbY67O/MjNsf+O+ChJQdIq8mJdP8Ij4C/
wJZl8+7sS2i9nYjDMbNA8ejP9ji7nOTRf9TlWJt8+tTzDpt1keS6Ui4ZftH1zVoZ
/LoG9vtSqEuZBN34+bSLUKNOYonwhyT6g0LBh/rVLSkqWnF6ZGrXJ2BjDdvOSfWN
H5CJMhf4c0O40lqThmHW4XUK6nlmdohPcesEJdYKWnqT5blLF0APsba59d5P3OCz
rDsRcGCESkNumSDAKXEKwGUCAwEAAQ==
-----END PUBLIC KEY-----

[p11-kit-object-v1]
label: "ACCVRAIZ1"
trusted: true
nss-mozilla-ca-policy: true
modifiable: false
-----BEGIN CERTIFICATE-----
MIIH0zCCBbugAwIBAgIIXsO3pkN/pOAwDQYJKoZIhvcNAQEFBQAwQjESMBAGA1UE
AwwJ